target datalayout = "e-m:e-p270:32:32-p271:32:32-p272:64:64-i64:64-i128:128-f80:128-n8:16:32:64-S128"
target triple = "x86_64-pc-linux-gnu"

%"class.std::__cxx11::basic_string" = type { %"struct.std::__cxx11::basic_string<char>::_Alloc_hider", i64, %union.anon }
%"struct.std::__cxx11::basic_string<char>::_Alloc_hider" = type { ptr }
%union.anon = type { i64, [8 x i8] }
%"struct.faiss::IOReader" = type { ptr, %"class.std::__cxx11::basic_string" }
%"struct.faiss::FileIOReader" = type <{ %"struct.faiss::IOReader", ptr, i8, [7 x i8] }>

; Function Attrs: mustprogress uwtable
define noundef ptr @_ZN5faiss10read_indexEP8_IO_FILEi(ptr noundef %0, i32 noundef %1) #4 personality ptr @__gxx_personality_v0 {
  %3 = alloca ptr, align 8
  %4 = alloca i32, align 4
  %5 = alloca %"struct.faiss::FileIOReader", align 8
  %6 = alloca ptr, align 8
  %7 = alloca i32, align 4
  store ptr %0, ptr %3, align 8, !tbaa !149
  store i32 %1, ptr %4, align 4, !tbaa !15
  call void @llvm.lifetime.start.p0(i64 56, ptr %5) #3
  %8 = load ptr, ptr %3, align 8, !tbaa !149
  call void @_ZN5faiss12FileIOReaderC1EP8_IO_FILE(ptr noundef nonnull align 8 dereferenceable(49) %5, ptr noundef %8)
  %9 = load i32, ptr %4, align 4, !tbaa !15
  %10 = invoke noundef ptr @_ZN5faiss10read_indexEPNS_8IOReaderEi(ptr noundef %5, i32 noundef %9)
          to label %11 unwind label %12

11:                                               ; preds = %2
  call void @_ZN5faiss12FileIOReaderD1Ev(ptr noundef nonnull align 8 dereferenceable(49) %5) #3
  call void @llvm.lifetime.end.p0(i64 56, ptr %5) #3
  ret ptr %10

12:                                               ; preds = %2
  %13 = landingpad { ptr, i32 }
          cleanup
  %14 = extractvalue { ptr, i32 } %13, 0
  store ptr %14, ptr %6, align 8
  %15 = extractvalue { ptr, i32 } %13, 1
  store i32 %15, ptr %7, align 4
  call void @_ZN5faiss12FileIOReaderD1Ev(ptr noundef nonnull align 8 dereferenceable(49) %5) #3
  call void @llvm.lifetime.end.p0(i64 56, ptr %5) #3
  br label %16

16:                                               ; preds = %12
  %17 = load ptr, ptr %6, align 8
  %18 = load i32, ptr %7, align 4
  %19 = insertvalue { ptr, i32 } poison, ptr %17, 0
  %20 = insertvalue { ptr, i32 } %19, i32 %18, 1
  resume { ptr, i32 } %20
}